; Function Attrs: mustprogress nounwind uwtable
define internal fastcc void @_ZN12_GLOBAL__N_122MemorySanitizerVisitor13getPclmulMaskEjb(ptr dead_on_unwind noalias nonnull writable align 8 %0, i32 noundef %1, i1 noundef zeroext %2) unnamed_addr #0 align 2 {
  %4 = getelementptr inbounds i8, ptr %0, i64 16
  tail call void @_ZN4llvm15SmallVectorBaseIjEC2EPvm(ptr noundef nonnull align 8 dereferenceable(16) %0, ptr noundef nonnull %4, i64 noundef 8) #23
  %5 = zext i1 %2 to i32
  %6 = icmp ugt i32 %1, %5
  br i1 %6, label %.lr.ph, label %._crit_edge

.lr.ph:                                           ; preds = %3, %_ZN4llvm15SmallVectorImplIiE6appendEmi.exit
  %.05 = phi i32 [ %16, %_ZN4llvm15SmallVectorImplIiE6appendEmi.exit ], [ %5, %3 ]
  %7 = tail call noundef i64 @_ZNK4llvm15SmallVectorBaseIjE4sizeEv(ptr noundef nonnull align 8 dereferenceable(16) %0) #23
  %8 = add i64 %7, 2
  %9 = tail call noundef i64 @_ZNK4llvm15SmallVectorBaseIjE8capacityEv(ptr noundef nonnull align 8 dereferenceable(16) %0) #23
  %.not.i.i.i = icmp ugt i64 %8, %9
  br i1 %.not.i.i.i, label %10, label %_ZN4llvm23SmallVectorTemplateBaseIiLb1EE28reserveForParamAndGetAddressERim.exit.i

10:                                               ; preds = %.lr.ph
  tail call void @_ZN4llvm15SmallVectorBaseIjE8grow_podEPvmm(ptr noundef nonnull align 8 dereferenceable(16) %0, ptr noundef nonnull %4, i64 noundef %8, i64 noundef 4) #23
  br label %_ZN4llvm23SmallVectorTemplateBaseIiLb1EE28reserveForParamAndGetAddressERim.exit.i

_ZN4llvm23SmallVectorTemplateBaseIiLb1EE28reserveForParamAndGetAddressERim.exit.i: ; preds = %10, %.lr.ph
  %11 = load ptr, ptr %0, align 8
  %12 = tail call noundef i64 @_ZNK4llvm15SmallVectorBaseIjE4sizeEv(ptr noundef nonnull align 8 dereferenceable(16) %0) #23
  %13 = getelementptr inbounds i32, ptr %11, i64 %12
  br label %.lr.ph.i.i.i.i.i.i.i

.lr.ph.i.i.i.i.i.i.i:                             ; preds = %.lr.ph.i.i.i.i.i.i.i, %_ZN4llvm23SmallVectorTemplateBaseIiLb1EE28reserveForParamAndGetAddressERim.exit.i
  %.06.i.i.i.i.i.i.i.idx = phi i64 [ %.06.i.i.i.i.i.i.i.add, %.lr.ph.i.i.i.i.i.i.i ], [ 0, %_ZN4llvm23SmallVectorTemplateBaseIiLb1EE28reserveForParamAndGetAddressERim.exit.i ]
  %.06.i.i.i.i.i.i.i.ptr = getelementptr inbounds i8, ptr %13, i64 %.06.i.i.i.i.i.i.i.idx
  store i32 %.05, ptr %.06.i.i.i.i.i.i.i.ptr, align 4
  %.06.i.i.i.i.i.i.i.add = add nuw nsw i64 %.06.i.i.i.i.i.i.i.idx, 4
  %.not.i.i.i.i.i.i.i = icmp eq i64 %.06.i.i.i.i.i.i.i.add, 8
  br i1 %.not.i.i.i.i.i.i.i, label %_ZN4llvm15SmallVectorImplIiE6appendEmi.exit, label %.lr.ph.i.i.i.i.i.i.i, !llvm.loop !326

_ZN4llvm15SmallVectorImplIiE6appendEmi.exit:      ; preds = %.lr.ph.i.i.i.i.i.i.i
  %14 = tail call noundef i64 @_ZNK4llvm15SmallVectorBaseIjE4sizeEv(ptr noundef nonnull align 8 dereferenceable(16) %0) #23
  %15 = add i64 %14, 2
  tail call void @_ZN4llvm15SmallVectorBaseIjE8set_sizeEm(ptr noundef nonnull align 8 dereferenceable(16) %0, i64 noundef %15) #23
  %16 = add i32 %.05, 2
  %17 = icmp ult i32 %16, %1
  br i1 %17, label %.lr.ph, label %._crit_edge, !llvm.loop !327

._crit_edge:                                      ; preds = %_ZN4llvm15SmallVectorImplIiE6appendEmi.exit, %3
  ret void
}